target datalayout = "e-m:e-p270:32:32-p271:32:32-p272:64:64-i64:64-i128:128-f80:128-n8:16:32:64-S128"
target triple = "x86_64-pc-linux-gnu"

%struct.GlyphBlitVector = type { i32, ptr }
%struct.ImageRef = type { ptr, ptr, i32, i32, i32, i32, i32, i32 }
%struct.SurfaceDataBounds = type { i32, i32, i32, i32 }
%struct._NativePrimitive = type { ptr, ptr, ptr, ptr, %union.anon, %union.anon, i32, i32 }
%union.anon = type { ptr }
%struct.SurfaceDataRasInfo = type { %struct.SurfaceDataBounds, ptr, i32, i32, i32, i32, ptr, ptr, ptr, ptr, ptr, ptr, i32, %union.anon.0 }
%union.anon.0 = type { ptr, [56 x i8] }
%struct._CompositeInfo = type { i32, %union.anon.1, i32 }
%union.anon.1 = type { float }
%struct._CompositeType = type { %struct._SurfCompHdr, ptr, i32 }
%struct._SurfCompHdr = type { ptr, ptr }
%struct._SurfaceDataOps = type { ptr, ptr, ptr, ptr, ptr, ptr, ptr }

; Function Attrs: nounwind uwtable
define hidden i32 @RefineBounds(ptr noundef %0, ptr noundef %1) #0 {
  %3 = alloca ptr, align 8
  %4 = alloca ptr, align 8
  %5 = alloca i32, align 4
  %6 = alloca i32, align 4
  %7 = alloca i32, align 4
  %8 = alloca i32, align 4
  %9 = alloca i32, align 4
  %10 = alloca %struct.ImageRef, align 8
  %11 = alloca i32, align 4
  %12 = alloca %struct.SurfaceDataBounds, align 4
  store ptr %0, ptr %3, align 8
  store ptr %1, ptr %4, align 8
  %13 = load ptr, ptr %3, align 8
  %14 = getelementptr inbounds %struct.GlyphBlitVector, ptr %13, i32 0, i32 0
  %15 = load i32, ptr %14, align 8
  store i32 %15, ptr %11, align 4
  %16 = getelementptr inbounds %struct.SurfaceDataBounds, ptr %12, i32 0, i32 1
  store i32 2147483647, ptr %16, align 4
  %17 = getelementptr inbounds %struct.SurfaceDataBounds, ptr %12, i32 0, i32 0
  store i32 2147483647, ptr %17, align 4
  %18 = getelementptr inbounds %struct.SurfaceDataBounds, ptr %12, i32 0, i32 3
  store i32 -2147483648, ptr %18, align 4
  %19 = getelementptr inbounds %struct.SurfaceDataBounds, ptr %12, i32 0, i32 2
  store i32 -2147483648, ptr %19, align 4
  store i32 0, ptr %5, align 4
  br label %20

20:                                               ; preds = %75, %2
  %21 = load i32, ptr %5, align 4
  %22 = load i32, ptr %11, align 4
  %23 = icmp slt i32 %21, %22
  br i1 %23, label %24, label %78

24:                                               ; preds = %20
  %25 = load ptr, ptr %3, align 8
  %26 = getelementptr inbounds %struct.GlyphBlitVector, ptr %25, i32 0, i32 1
  %27 = load ptr, ptr %26, align 8
  %28 = load i32, ptr %5, align 4
  %29 = sext i32 %28 to i64
  %30 = getelementptr inbounds %struct.ImageRef, ptr %27, i64 %29
  call void @llvm.memcpy.p0.p0.i64(ptr align 8 %10, ptr align 8 %30, i64 40, i1 false)
  %31 = getelementptr inbounds %struct.ImageRef, ptr %10, i32 0, i32 6
  %32 = load i32, ptr %31, align 8
  store i32 %32, ptr %6, align 4
  %33 = getelementptr inbounds %struct.ImageRef, ptr %10, i32 0, i32 7
  %34 = load i32, ptr %33, align 4
  store i32 %34, ptr %7, align 4
  %35 = load i32, ptr %6, align 4
  %36 = getelementptr inbounds %struct.ImageRef, ptr %10, i32 0, i32 4
  %37 = load i32, ptr %36, align 8
  %38 = add nsw i32 %35, %37
  store i32 %38, ptr %8, align 4
  %39 = load i32, ptr %7, align 4
  %40 = getelementptr inbounds %struct.ImageRef, ptr %10, i32 0, i32 5
  %41 = load i32, ptr %40, align 4
  %42 = add nsw i32 %39, %41
  store i32 %42, ptr %9, align 4
  %43 = getelementptr inbounds %struct.SurfaceDataBounds, ptr %12, i32 0, i32 0
  %44 = load i32, ptr %43, align 4
  %45 = load i32, ptr %6, align 4
  %46 = icmp sgt i32 %44, %45
  br i1 %46, label %47, label %50

47:                                               ; preds = %24
  %48 = load i32, ptr %6, align 4
  %49 = getelementptr inbounds %struct.SurfaceDataBounds, ptr %12, i32 0, i32 0
  store i32 %48, ptr %49, align 4
  br label %50

50:                                               ; preds = %47, %24
  %51 = getelementptr inbounds %struct.SurfaceDataBounds, ptr %12, i32 0, i32 1
  %52 = load i32, ptr %51, align 4
  %53 = load i32, ptr %7, align 4
  %54 = icmp sgt i32 %52, %53
  br i1 %54, label %55, label %58

55:                                               ; preds = %50
  %56 = load i32, ptr %7, align 4
  %57 = getelementptr inbounds %struct.SurfaceDataBounds, ptr %12, i32 0, i32 1
  store i32 %56, ptr %57, align 4
  br label %58

58:                                               ; preds = %55, %50
  %59 = getelementptr inbounds %struct.SurfaceDataBounds, ptr %12, i32 0, i32 2
  %60 = load i32, ptr %59, align 4
  %61 = load i32, ptr %8, align 4
  %62 = icmp slt i32 %60, %61
  br i1 %62, label %63, label %66

63:                                               ; preds = %58
  %64 = load i32, ptr %8, align 4
  %65 = getelementptr inbounds %struct.SurfaceDataBounds, ptr %12, i32 0, i32 2
  store i32 %64, ptr %65, align 4
  br label %66

66:                                               ; preds = %63, %58
  %67 = getelementptr inbounds %struct.SurfaceDataBounds, ptr %12, i32 0, i32 3
  %68 = load i32, ptr %67, align 4
  %69 = load i32, ptr %9, align 4
  %70 = icmp slt i32 %68, %69
  br i1 %70, label %71, label %74

71:                                               ; preds = %66
  %72 = load i32, ptr %9, align 4
  %73 = getelementptr inbounds %struct.SurfaceDataBounds, ptr %12, i32 0, i32 3
  store i32 %72, ptr %73, align 4
  br label %74

74:                                               ; preds = %71, %66
  br label %75

75:                                               ; preds = %74
  %76 = load i32, ptr %5, align 4
  %77 = add nsw i32 %76, 1
  store i32 %77, ptr %5, align 4
  br label %20, !llvm.loop !9

78:                                               ; preds = %20
  %79 = load ptr, ptr %4, align 8
  call void @SurfaceData_IntersectBounds(ptr noundef %79, ptr noundef %12)
  %80 = load ptr, ptr %4, align 8
  %81 = getelementptr inbounds %struct.SurfaceDataBounds, ptr %80, i32 0, i32 0
  %82 = load i32, ptr %81, align 4
  %83 = load ptr, ptr %4, align 8
  %84 = getelementptr inbounds %struct.SurfaceDataBounds, ptr %83, i32 0, i32 2
  %85 = load i32, ptr %84, align 4
  %86 = icmp slt i32 %82, %85
  br i1 %86, label %87, label %95

87:                                               ; preds = %78
  %88 = load ptr, ptr %4, align 8
  %89 = getelementptr inbounds %struct.SurfaceDataBounds, ptr %88, i32 0, i32 1
  %90 = load i32, ptr %89, align 4
  %91 = load ptr, ptr %4, align 8
  %92 = getelementptr inbounds %struct.SurfaceDataBounds, ptr %91, i32 0, i32 3
  %93 = load i32, ptr %92, align 4
  %94 = icmp slt i32 %90, %93
  br label %95

95:                                               ; preds = %87, %78
  %96 = phi i1 [ false, %78 ], [ %94, %87 ]
  %97 = zext i1 %96 to i32
  ret i32 %97
}

; Function Attrs: nounwind uwtable
define internal void @drawGlyphList(ptr noundef %0, ptr noundef %1, ptr noundef %2, ptr noundef %3, ptr noundef %4, i32 noundef %5, i32 noundef %6, ptr noundef %7, ptr noundef %8) #0 {
  %10 = alloca ptr, align 8
  %11 = alloca ptr, align 8
  %12 = alloca ptr, align 8
  %13 = alloca ptr, align 8
  %14 = alloca ptr, align 8
  %15 = alloca i32, align 4
  %16 = alloca i32, align 4
  %17 = alloca ptr, align 8
  %18 = alloca ptr, align 8
  %19 = alloca ptr, align 8
  %20 = alloca %struct.SurfaceDataRasInfo, align 8
  %21 = alloca %struct._CompositeInfo, align 4
  %22 = alloca i32, align 4
  %23 = alloca i32, align 4
  %24 = alloca i32, align 4
  %25 = alloca i32, align 4
  %26 = alloca i32, align 4
  store ptr %0, ptr %10, align 8
  store ptr %1, ptr %11, align 8
  store ptr %2, ptr %12, align 8
  store ptr %3, ptr %13, align 8
  store ptr %4, ptr %14, align 8
  store i32 %5, ptr %15, align 4
  store i32 %6, ptr %16, align 4
  store ptr %7, ptr %17, align 8
  store ptr %8, ptr %18, align 8
  %27 = load ptr, ptr %10, align 8
  %28 = load ptr, ptr %13, align 8
  %29 = call ptr @SurfaceData_GetOps(ptr noundef %27, ptr noundef %28)
  store ptr %29, ptr %19, align 8
  %30 = load ptr, ptr %19, align 8
  %31 = icmp eq ptr %30, null
  br i1 %31, label %32, label %33

32:                                               ; preds = %9
  br label %185

33:                                               ; preds = %9
  %34 = load ptr, ptr %17, align 8
  %35 = getelementptr inbounds %struct._NativePrimitive, ptr %34, i32 0, i32 2
  %36 = load ptr, ptr %35, align 8
  %37 = getelementptr inbounds %struct._CompositeType, ptr %36, i32 0, i32 1
  %38 = load ptr, ptr %37, align 8
  %39 = icmp ne ptr %38, null
  br i1 %39, label %40, label %44

40:                                               ; preds = %33
  %41 = load ptr, ptr %10, align 8
  %42 = load ptr, ptr %12, align 8
  %43 = load ptr, ptr %17, align 8
  call void @GrPrim_Sg2dGetCompInfo(ptr noundef %41, ptr noundef %42, ptr noundef %43, ptr noundef %21)
  br label %44

44:                                               ; preds = %40, %33
  %45 = load ptr, ptr %10, align 8
  %46 = load ptr, ptr %12, align 8
  %47 = getelementptr inbounds %struct.SurfaceDataRasInfo, ptr %20, i32 0, i32 0
  call void @GrPrim_Sg2dGetClip(ptr noundef %45, ptr noundef %46, ptr noundef %47)
  %48 = getelementptr inbounds %struct.SurfaceDataRasInfo, ptr %20, i32 0, i32 0
  %49 = getelementptr inbounds %struct.SurfaceDataBounds, ptr %48, i32 0, i32 3
  %50 = load i32, ptr %49, align 4
  %51 = getelementptr inbounds %struct.SurfaceDataRasInfo, ptr %20, i32 0, i32 0
  %52 = getelementptr inbounds %struct.SurfaceDataBounds, ptr %51, i32 0, i32 1
  %53 = load i32, ptr %52, align 4
  %54 = icmp sle i32 %50, %53
  br i1 %54, label %63, label %55

55:                                               ; preds = %44
  %56 = getelementptr inbounds %struct.SurfaceDataRasInfo, ptr %20, i32 0, i32 0
  %57 = getelementptr inbounds %struct.SurfaceDataBounds, ptr %56, i32 0, i32 2
  %58 = load i32, ptr %57, align 8
  %59 = getelementptr inbounds %struct.SurfaceDataRasInfo, ptr %20, i32 0, i32 0
  %60 = getelementptr inbounds %struct.SurfaceDataBounds, ptr %59, i32 0, i32 0
  %61 = load i32, ptr %60, align 8
  %62 = icmp sle i32 %58, %61
  br i1 %62, label %63, label %64

63:                                               ; preds = %55, %44
  br label %185

64:                                               ; preds = %55
  %65 = load ptr, ptr %19, align 8
  %66 = getelementptr inbounds %struct._SurfaceDataOps, ptr %65, i32 0, i32 0
  %67 = load ptr, ptr %66, align 8
  %68 = load ptr, ptr %10, align 8
  %69 = load ptr, ptr %19, align 8
  %70 = load ptr, ptr %17, align 8
  %71 = getelementptr inbounds %struct._NativePrimitive, ptr %70, i32 0, i32 7
  %72 = load i32, ptr %71, align 4
  %73 = call i32 %67(ptr noundef %68, ptr noundef %69, ptr noundef %20, i32 noundef %72)
  store i32 %73, ptr %26, align 4
  %74 = load i32, ptr %26, align 4
  %75 = icmp ne i32 %74, 0
  br i1 %75, label %76, label %101

76:                                               ; preds = %64
  %77 = load i32, ptr %26, align 4
  %78 = icmp eq i32 %77, 1
  br i1 %78, label %79, label %99

79:                                               ; preds = %76
  %80 = load ptr, ptr %14, align 8
  %81 = getelementptr inbounds %struct.SurfaceDataRasInfo, ptr %20, i32 0, i32 0
  %82 = call i32 @RefineBounds(ptr noundef %80, ptr noundef %81)
  %83 = icmp ne i32 %82, 0
  br i1 %83, label %98, label %84

84:                                               ; preds = %79
  br label %85

85:                                               ; preds = %84
  %86 = load ptr, ptr %19, align 8
  %87 = getelementptr inbounds %struct._SurfaceDataOps, ptr %86, i32 0, i32 3
  %88 = load ptr, ptr %87, align 8
  %89 = icmp ne ptr %88, null
  br i1 %89, label %90, label %96

90:                                               ; preds = %85
  %91 = load ptr, ptr %19, align 8
  %92 = getelementptr inbounds %struct._SurfaceDataOps, ptr %91, i32 0, i32 3
  %93 = load ptr, ptr %92, align 8
  %94 = load ptr, ptr %10, align 8
  %95 = load ptr, ptr %19, align 8
  call void %93(ptr noundef %94, ptr noundef %95, ptr noundef %20)
  br label %96

96:                                               ; preds = %90, %85
  br label %97

97:                                               ; preds = %96
  br label %185

98:                                               ; preds = %79
  br label %100

99:                                               ; preds = %76
  br label %185

100:                                              ; preds = %98
  br label %101

101:                                              ; preds = %100, %64
  %102 = load ptr, ptr %19, align 8
  %103 = getelementptr inbounds %struct._SurfaceDataOps, ptr %102, i32 0, i32 1
  %104 = load ptr, ptr %103, align 8
  %105 = load ptr, ptr %10, align 8
  %106 = load ptr, ptr %19, align 8
  call void %104(ptr noundef %105, ptr noundef %106, ptr noundef %20)
  %107 = getelementptr inbounds %struct.SurfaceDataRasInfo, ptr %20, i32 0, i32 1
  %108 = load ptr, ptr %107, align 8
  %109 = icmp ne ptr %108, null
  br i1 %109, label %124, label %110

110:                                              ; preds = %101
  br label %111

111:                                              ; preds = %110
  %112 = load ptr, ptr %19, align 8
  %113 = getelementptr inbounds %struct._SurfaceDataOps, ptr %112, i32 0, i32 3
  %114 = load ptr, ptr %113, align 8
  %115 = icmp ne ptr %114, null
  br i1 %115, label %116, label %122

116:                                              ; preds = %111
  %117 = load ptr, ptr %19, align 8
  %118 = getelementptr inbounds %struct._SurfaceDataOps, ptr %117, i32 0, i32 3
  %119 = load ptr, ptr %118, align 8
  %120 = load ptr, ptr %10, align 8
  %121 = load ptr, ptr %19, align 8
  call void %119(ptr noundef %120, ptr noundef %121, ptr noundef %20)
  br label %122

122:                                              ; preds = %116, %111
  br label %123

123:                                              ; preds = %122
  br label %185

124:                                              ; preds = %101
  %125 = getelementptr inbounds %struct.SurfaceDataRasInfo, ptr %20, i32 0, i32 0
  %126 = getelementptr inbounds %struct.SurfaceDataBounds, ptr %125, i32 0, i32 0
  %127 = load i32, ptr %126, align 8
  store i32 %127, ptr %22, align 4
  %128 = getelementptr inbounds %struct.SurfaceDataRasInfo, ptr %20, i32 0, i32 0
  %129 = getelementptr inbounds %struct.SurfaceDataBounds, ptr %128, i32 0, i32 2
  %130 = load i32, ptr %129, align 8
  store i32 %130, ptr %23, align 4
  %131 = getelementptr inbounds %struct.SurfaceDataRasInfo, ptr %20, i32 0, i32 0
  %132 = getelementptr inbounds %struct.SurfaceDataBounds, ptr %131, i32 0, i32 1
  %133 = load i32, ptr %132, align 4
  store i32 %133, ptr %24, align 4
  %134 = getelementptr inbounds %struct.SurfaceDataRasInfo, ptr %20, i32 0, i32 0
  %135 = getelementptr inbounds %struct.SurfaceDataBounds, ptr %134, i32 0, i32 3
  %136 = load i32, ptr %135, align 4
  store i32 %136, ptr %25, align 4
  %137 = load i32, ptr %23, align 4
  %138 = load i32, ptr %22, align 4
  %139 = icmp sgt i32 %137, %138
  br i1 %139, label %140, label %172

140:                                              ; preds = %124
  %141 = load i32, ptr %25, align 4
  %142 = load i32, ptr %24, align 4
  %143 = icmp sgt i32 %141, %142
  br i1 %143, label %144, label %172

144:                                              ; preds = %140
  %145 = load ptr, ptr %18, align 8
  %146 = load ptr, ptr %14, align 8
  %147 = getelementptr inbounds %struct.GlyphBlitVector, ptr %146, i32 0, i32 1
  %148 = load ptr, ptr %147, align 8
  %149 = load ptr, ptr %14, align 8
  %150 = getelementptr inbounds %struct.GlyphBlitVector, ptr %149, i32 0, i32 0
  %151 = load i32, ptr %150, align 8
  %152 = load i32, ptr %15, align 4
  %153 = load i32, ptr %16, align 4
  %154 = load i32, ptr %22, align 4
  %155 = load i32, ptr %24, align 4
  %156 = load i32, ptr %23, align 4
  %157 = load i32, ptr %25, align 4
  %158 = load ptr, ptr %17, align 8
  call void %145(ptr noundef %20, ptr noundef %148, i32 noundef %151, i32 noundef %152, i32 noundef %153, i32 noundef %154, i32 noundef %155, i32 noundef %156, i32 noundef %157, ptr noundef %158, ptr noundef %21)
  br label %159

159:                                              ; preds = %144
  %160 = load ptr, ptr %19, align 8
  %161 = getelementptr inbounds %struct._SurfaceDataOps, ptr %160, i32 0, i32 2
  %162 = load ptr, ptr %161, align 8
  %163 = icmp ne ptr %162, null
  br i1 %163, label %164, label %170

164:                                              ; preds = %159
  %165 = load ptr, ptr %19, align 8
  %166 = getelementptr inbounds %struct._SurfaceDataOps, ptr %165, i32 0, i32 2
  %167 = load ptr, ptr %166, align 8
  %168 = load ptr, ptr %10, align 8
  %169 = load ptr, ptr %19, align 8
  call void %167(ptr noundef %168, ptr noundef %169, ptr noundef %20)
  br label %170

170:                                              ; preds = %164, %159
  br label %171

171:                                              ; preds = %170
  br label %172

172:                                              ; preds = %171, %140, %124
  br label %173

173:                                              ; preds = %172
  %174 = load ptr, ptr %19, align 8
  %175 = getelementptr inbounds %struct._SurfaceDataOps, ptr %174, i32 0, i32 3
  %176 = load ptr, ptr %175, align 8
  %177 = icmp ne ptr %176, null
  br i1 %177, label %178, label %184

178:                                              ; preds = %173
  %179 = load ptr, ptr %19, align 8
  %180 = getelementptr inbounds %struct._SurfaceDataOps, ptr %179, i32 0, i32 3
  %181 = load ptr, ptr %180, align 8
  %182 = load ptr, ptr %10, align 8
  %183 = load ptr, ptr %19, align 8
  call void %181(ptr noundef %182, ptr noundef %183, ptr noundef %20)
  br label %184

184:                                              ; preds = %178, %173
  br label %185

185:                                              ; preds = %184, %123, %99, %97, %63, %32
  ret void
}