; Function Attrs: nounwind uwtable
define internal fastcc void @drawGlyphList(ptr noundef %0, ptr noundef %1, ptr noundef %2, ptr nocapture noundef readonly %3, i32 noundef %4, i32 noundef %5, ptr noundef %6, ptr nocapture noundef readonly %7) unnamed_addr #0 {
  %9 = alloca %struct.SurfaceDataBounds, align 16
  %10 = alloca %struct.SurfaceDataRasInfo, align 8
  %11 = alloca %struct._CompositeInfo, align 4
  %12 = tail call ptr @SurfaceData_GetOps(ptr noundef %0, ptr noundef %2) #10
  %13 = icmp eq ptr %12, null
  br i1 %13, label %97, label %14

14:                                               ; preds = %8
  %15 = getelementptr inbounds i8, ptr %6, i64 16
  %16 = load ptr, ptr %15, align 8
  %17 = getelementptr inbounds i8, ptr %16, i64 16
  %18 = load ptr, ptr %17, align 8
  %.not = icmp eq ptr %18, null
  br i1 %.not, label %20, label %19

19:                                               ; preds = %14
  call void @GrPrim_Sg2dGetCompInfo(ptr noundef %0, ptr noundef %1, ptr noundef nonnull %6, ptr noundef nonnull %11) #10
  br label %20

20:                                               ; preds = %19, %14
  call void @GrPrim_Sg2dGetClip(ptr noundef %0, ptr noundef %1, ptr noundef nonnull %10) #10
  %21 = getelementptr inbounds i8, ptr %10, i64 12
  %22 = load i32, ptr %21, align 4
  %23 = getelementptr inbounds i8, ptr %10, i64 4
  %24 = load i32, ptr %23, align 4
  %.not57 = icmp sgt i32 %22, %24
  br i1 %.not57, label %25, label %97

25:                                               ; preds = %20
  %26 = getelementptr inbounds i8, ptr %10, i64 8
  %27 = load i32, ptr %26, align 8
  %28 = load i32, ptr %10, align 8
  %.not58 = icmp sgt i32 %27, %28
  br i1 %.not58, label %29, label %97

29:                                               ; preds = %25
  %30 = load ptr, ptr %12, align 8
  %31 = getelementptr inbounds i8, ptr %6, i64 52
  %32 = load i32, ptr %31, align 4
  %33 = call i32 %30(ptr noundef %0, ptr noundef nonnull %12, ptr noundef nonnull %10, i32 noundef %32) #10
  switch i32 %33, label %97 [
    i32 0, label %72
    i32 1, label %34
  ]

34:                                               ; preds = %29
  call void @llvm.lifetime.start.p0(i64 16, ptr nonnull %9)
  %35 = load i32, ptr %3, align 8
  %36 = getelementptr inbounds i8, ptr %9, i64 4
  %37 = getelementptr inbounds i8, ptr %9, i64 12
  %38 = getelementptr inbounds i8, ptr %9, i64 8
  store <4 x i32> <i32 2147483647, i32 2147483647, i32 -2147483648, i32 -2147483648>, ptr %9, align 16
  %39 = icmp sgt i32 %35, 0
  br i1 %39, label %.lr.ph.i, label %._crit_edge.i

.lr.ph.i:                                         ; preds = %34
  %40 = getelementptr inbounds i8, ptr %3, i64 8
  %41 = load ptr, ptr %40, align 8
  %wide.trip.count.i = zext nneg i32 %35 to i64
  br label %42

42:                                               ; preds = %62, %.lr.ph.i
  %indvars.iv.i = phi i64 [ 0, %.lr.ph.i ], [ %indvars.iv.next.i, %62 ]
  %.sroa.3.0.copyload2327.i = phi i32 [ 2147483647, %.lr.ph.i ], [ %.sroa.3.0.copyload22.i, %62 ]
  %43 = phi i32 [ 2147483647, %.lr.ph.i ], [ %55, %62 ]
  %44 = phi i32 [ -2147483648, %.lr.ph.i ], [ %59, %62 ]
  %45 = phi i32 [ -2147483648, %.lr.ph.i ], [ %63, %62 ]
  %46 = getelementptr inbounds %struct.ImageRef, ptr %41, i64 %indvars.iv.i
  %.sroa.1.0..sroa_idx.i = getelementptr inbounds i8, ptr %46, i64 24
  %.sroa.1.0.copyload.i = load i32, ptr %.sroa.1.0..sroa_idx.i, align 8
  %.sroa.2.0..sroa_idx.i = getelementptr inbounds i8, ptr %46, i64 28
  %.sroa.2.0.copyload.i = load i32, ptr %.sroa.2.0..sroa_idx.i, align 4
  %.sroa.3.0..sroa_idx.i = getelementptr inbounds i8, ptr %46, i64 32
  %.sroa.3.0.copyload.i = load i32, ptr %.sroa.3.0..sroa_idx.i, align 8
  %.sroa.4.0..sroa_idx.i = getelementptr inbounds i8, ptr %46, i64 36
  %.sroa.4.0.copyload.i = load i32, ptr %.sroa.4.0..sroa_idx.i, align 4
  %47 = add nsw i32 %.sroa.3.0.copyload.i, %.sroa.1.0.copyload.i
  %48 = add nsw i32 %.sroa.4.0.copyload.i, %.sroa.2.0.copyload.i
  %49 = icmp sgt i32 %.sroa.3.0.copyload2327.i, %.sroa.3.0.copyload.i
  br i1 %49, label %50, label %51

50:                                               ; preds = %42
  store i32 %.sroa.3.0.copyload.i, ptr %9, align 16
  br label %51

51:                                               ; preds = %50, %42
  %.sroa.3.0.copyload22.i = phi i32 [ %.sroa.3.0.copyload.i, %50 ], [ %.sroa.3.0.copyload2327.i, %42 ]
  %52 = icmp sgt i32 %43, %.sroa.4.0.copyload.i
  br i1 %52, label %53, label %54

53:                                               ; preds = %51
  store i32 %.sroa.4.0.copyload.i, ptr %36, align 4
  br label %54

54:                                               ; preds = %53, %51
  %55 = phi i32 [ %.sroa.4.0.copyload.i, %53 ], [ %43, %51 ]
  %56 = icmp slt i32 %44, %47
  br i1 %56, label %57, label %58

57:                                               ; preds = %54
  store i32 %47, ptr %38, align 8
  br label %58

58:                                               ; preds = %57, %54
  %59 = phi i32 [ %47, %57 ], [ %44, %54 ]
  %60 = icmp slt i32 %45, %48
  br i1 %60, label %61, label %62

61:                                               ; preds = %58
  store i32 %48, ptr %37, align 4
  br label %62

62:                                               ; preds = %61, %58
  %63 = phi i32 [ %45, %58 ], [ %48, %61 ]
  %indvars.iv.next.i = add nuw nsw i64 %indvars.iv.i, 1
  %exitcond.not.i = icmp eq i64 %indvars.iv.next.i, %wide.trip.count.i
  br i1 %exitcond.not.i, label %._crit_edge.i, label %42, !llvm.loop !9

._crit_edge.i:                                    ; preds = %62, %34
  call void @SurfaceData_IntersectBounds(ptr noundef nonnull %10, ptr noundef nonnull %9) #10
  %64 = load i32, ptr %10, align 8
  %65 = load i32, ptr %26, align 8
  %66 = icmp slt i32 %64, %65
  br i1 %66, label %RefineBounds.exit, label %RefineBounds.exit.thread

RefineBounds.exit.thread:                         ; preds = %._crit_edge.i
  call void @llvm.lifetime.end.p0(i64 16, ptr nonnull %9)
  br label %69

RefineBounds.exit:                                ; preds = %._crit_edge.i
  %67 = load i32, ptr %23, align 4
  %68 = load i32, ptr %21, align 4
  %.not2 = icmp slt i32 %67, %68
  call void @llvm.lifetime.end.p0(i64 16, ptr nonnull %9)
  br i1 %.not2, label %72, label %69

69:                                               ; preds = %RefineBounds.exit.thread, %RefineBounds.exit
  %70 = getelementptr inbounds i8, ptr %12, i64 24
  %71 = load ptr, ptr %70, align 8
  %.not61 = icmp eq ptr %71, null
  br i1 %.not61, label %97, label %.sink.split

72:                                               ; preds = %29, %RefineBounds.exit
  %73 = getelementptr inbounds i8, ptr %12, i64 8
  %74 = load ptr, ptr %73, align 8
  call void %74(ptr noundef %0, ptr noundef nonnull %12, ptr noundef nonnull %10) #10
  %75 = getelementptr inbounds i8, ptr %10, i64 16
  %76 = load ptr, ptr %75, align 8
  %.not62 = icmp eq ptr %76, null
  br i1 %.not62, label %77, label %80

77:                                               ; preds = %72
  %78 = getelementptr inbounds i8, ptr %12, i64 24
  %79 = load ptr, ptr %78, align 8
  %.not63 = icmp eq ptr %79, null
  br i1 %.not63, label %97, label %.sink.split

80:                                               ; preds = %72
  %81 = load i32, ptr %10, align 8
  %82 = load i32, ptr %26, align 8
  %83 = load i32, ptr %23, align 4
  %84 = load i32, ptr %21, align 4
  %85 = icmp sgt i32 %82, %81
  %86 = icmp sgt i32 %84, %83
  %or.cond = select i1 %85, i1 %86, i1 false
  br i1 %or.cond, label %87, label %94

87:                                               ; preds = %80
  %88 = getelementptr inbounds i8, ptr %3, i64 8
  %89 = load ptr, ptr %88, align 8
  %90 = load i32, ptr %3, align 8
  call void %7(ptr noundef nonnull %10, ptr noundef %89, i32 noundef %90, i32 noundef %4, i32 noundef %5, i32 noundef %81, i32 noundef %83, i32 noundef %82, i32 noundef %84, ptr noundef %6, ptr noundef nonnull %11) #10
  %91 = getelementptr inbounds i8, ptr %12, i64 16
  %92 = load ptr, ptr %91, align 8
  %.not64 = icmp eq ptr %92, null
  br i1 %.not64, label %94, label %93

93:                                               ; preds = %87
  call void %92(ptr noundef %0, ptr noundef nonnull %12, ptr noundef nonnull %10) #10
  br label %94

94:                                               ; preds = %80, %87, %93
  %95 = getelementptr inbounds i8, ptr %12, i64 24
  %96 = load ptr, ptr %95, align 8
  %.not65 = icmp eq ptr %96, null
  br i1 %.not65, label %97, label %.sink.split

.sink.split:                                      ; preds = %94, %77, %69
  %.sink = phi ptr [ %71, %69 ], [ %79, %77 ], [ %96, %94 ]
  call void %.sink(ptr noundef %0, ptr noundef nonnull %12, ptr noundef nonnull %10) #10
  br label %97

97:                                               ; preds = %.sink.split, %29, %94, %77, %69, %20, %25, %8
  ret void
}